; Function Attrs: mustprogress nounwind uwtable
define hidden void @_ZN7Threads15java_threads_doEP13ThreadClosure(ptr noundef %0) local_unnamed_addr #0 align 2 {
  %2 = load volatile ptr, ptr @_ZN17ThreadsSMRSupport17_java_thread_listE, align 8
  tail call void asm sideeffect "", "~{memory},~{dirflag},~{fpsr},~{flags}"() #15, !srcloc !8
  %3 = getelementptr inbounds i8, ptr %2, i64 16
  %4 = load ptr, ptr %3, align 8
  %5 = getelementptr inbounds i8, ptr %2, i64 4
  %6 = load i32, ptr %5, align 4
  %7 = zext i32 %6 to i64
  %8 = getelementptr inbounds ptr, ptr %4, i64 %7
  %.not8 = icmp eq i32 %6, 0
  br i1 %.not8, label %._crit_edge, label %.lr.ph

.lr.ph:                                           ; preds = %1, %.lr.ph
  %.sroa.0.09 = phi ptr [ %13, %.lr.ph ], [ %4, %1 ]
  %9 = load i64, ptr @PrefetchScanIntervalInBytes, align 8
  tail call void asm sideeffect "prefetcht0 ($0,$1,1)", "r,r,~{dirflag},~{fpsr},~{flags}"(ptr %.sroa.0.09, i64 %9) #15, !srcloc !9
  %10 = load ptr, ptr %.sroa.0.09, align 8
  %11 = load ptr, ptr %0, align 8
  %12 = load ptr, ptr %11, align 8
  tail call void %12(ptr noundef nonnull align 8 dereferenceable(8) %0, ptr noundef %10) #15
  %13 = getelementptr inbounds i8, ptr %.sroa.0.09, i64 8
  %.not = icmp eq ptr %13, %8
  br i1 %.not, label %._crit_edge, label %.lr.ph

._crit_edge:                                      ; preds = %.lr.ph, %1
  ret void
}